; Function Attrs: null_pointer_is_valid sspstrong uwtable
define internal i32 @dissect_lpp_T_cnavE(ptr noundef %0, i32 noundef %1, ptr noundef %2, ptr noundef %3, i32 noundef %4) #0 {
  %6 = alloca i64, align 8
  call void @llvm.lifetime.start.p0(i64 8, ptr nonnull %6) #10
  %7 = call i32 @dissect_per_constrained_integer_64b(ptr noundef %0, i32 noundef %1, ptr noundef %2, ptr noundef %3, i32 noundef %4, i64 noundef 0, i64 noundef 8589934591, ptr noundef nonnull %6, i1 noundef zeroext false)
  %8 = getelementptr inbounds nuw i8, ptr %2, i64 24
  %9 = load ptr, ptr %8, align 8
  %.not.i = icmp eq ptr %9, null
  br i1 %.not.i, label %proto_item_set_hidden.exit, label %10

10:                                               ; preds = %5
  %11 = getelementptr inbounds nuw i8, ptr %9, i64 40
  %12 = load ptr, ptr %11, align 8
  %.not5.i = icmp eq ptr %12, null
  br i1 %.not5.i, label %proto_item_set_hidden.exit, label %13

13:                                               ; preds = %10
  %14 = getelementptr inbounds nuw i8, ptr %12, i64 28
  %15 = load i32, ptr %14, align 4
  %16 = or i32 %15, 1
  store i32 %16, ptr %14, align 4
  br label %proto_item_set_hidden.exit

proto_item_set_hidden.exit:                       ; preds = %5, %10, %13
  %17 = ashr i32 %1, 3
  %reass.sub = sub i32 %7, %1
  %18 = add i32 %reass.sub, 7
  %19 = ashr i32 %18, 3
  %20 = load i64, ptr %6, align 8
  %21 = uitofp i64 %20 to double
  %22 = fmul double %21, 0x3DD0000000000000
  %23 = call ptr (ptr, i32, ptr, i32, i32, i64, ptr, ...) @proto_tree_add_uint64_format_value(ptr noundef %3, i32 noundef %4, ptr noundef %0, i32 noundef %17, i32 noundef %19, i64 noundef %20, ptr noundef nonnull @.str.6927, double noundef %22, i64 noundef %20)
  store ptr %23, ptr %8, align 8
  call void @llvm.lifetime.end.p0(i64 8, ptr nonnull %6) #10
  ret i32 %7
}